target datalayout = "e-m:e-p270:32:32-p271:32:32-p272:64:64-i64:64-i128:128-f80:128-n8:16:32:64-S128"
target triple = "x86_64-pc-linux-gnu"

%class.G1HeapRegion = type { ptr, ptr, ptr, ptr, ptr, ptr, i32, %class.G1HeapRegionType, ptr, i32, ptr, ptr, ptr, i64, i32, ptr, i32, i32, i64 }
%class.G1HeapRegionType = type { i32 }
%class.GrowableArrayIterator = type <{ ptr, i32, [4 x i8] }>
%class.G1FullGCCompactionPoint = type { ptr, ptr, ptr, ptr, ptr, %class.GrowableArrayIterator }
%class.GrowableArrayView.4 = type { %class.GrowableArrayBase, ptr }
%class.GrowableArrayBase = type { i32, i32 }

; Function Attrs: mustprogress nounwind uwtable
define linkonce_odr hidden noundef i32 @_ZNK12G1HeapRegion9hrm_indexEv(ptr noundef nonnull align 8 dereferenceable(136) %0) #1 comdat align 2 {
  %2 = alloca ptr, align 8
  store ptr %0, ptr %2, align 8
  %3 = load ptr, ptr %2, align 8
  %4 = getelementptr inbounds %class.G1HeapRegion, ptr %3, i32 0, i32 6
  %5 = load i32, ptr %4, align 8
  ret i32 %5
}

; Function Attrs: mustprogress nounwind uwtable
define linkonce_odr hidden noundef nonnull align 8 dereferenceable(8) ptr @_ZN17GrowableArrayViewIP12G1HeapRegionE2atEi(ptr noundef nonnull align 8 dereferenceable(16) %0, i32 noundef %1) #1 comdat align 2 {
  %3 = alloca ptr, align 8
  %4 = alloca i32, align 4
  store ptr %0, ptr %3, align 8
  store i32 %1, ptr %4, align 4
  %5 = load ptr, ptr %3, align 8
  %6 = getelementptr inbounds %class.GrowableArrayView.4, ptr %5, i32 0, i32 1
  %7 = load ptr, ptr %6, align 8
  %8 = load i32, ptr %4, align 4
  %9 = sext i32 %8 to i64
  %10 = getelementptr inbounds ptr, ptr %7, i64 %9
  ret ptr %10
}

; Function Attrs: mustprogress nounwind uwtable
define linkonce_odr hidden noundef i32 @_ZNK17GrowableArrayBase6lengthEv(ptr noundef nonnull align 4 dereferenceable(8) %0) #1 comdat align 2 {
  %2 = alloca ptr, align 8
  store ptr %0, ptr %2, align 8
  %3 = load ptr, ptr %2, align 8
  %4 = getelementptr inbounds %class.GrowableArrayBase, ptr %3, i32 0, i32 0
  %5 = load i32, ptr %4, align 4
  ret i32 %5
}

; Function Attrs: mustprogress nounwind uwtable
define hidden noundef i32 @_ZN23G1FullGCCompactionPoint22find_contiguous_beforeEP12G1HeapRegionj(ptr noundef nonnull align 8 dereferenceable(56) %0, ptr noundef %1, i32 noundef %2) #1 align 2 {
  %4 = alloca i32, align 4
  %5 = alloca ptr, align 8
  %6 = alloca ptr, align 8
  %7 = alloca i32, align 4
  %8 = alloca i32, align 4
  %9 = alloca i32, align 4
  %10 = alloca i32, align 4
  %11 = alloca i8, align 1
  store ptr %0, ptr %5, align 8
  store ptr %1, ptr %6, align 8
  store i32 %2, ptr %7, align 4
  %12 = load ptr, ptr %5, align 8
  %13 = load i32, ptr %7, align 4
  %14 = icmp eq i32 %13, 1
  br i1 %14, label %15, label %16

15:                                               ; preds = %3
  store i32 0, ptr %4, align 4
  br label %78

16:                                               ; preds = %3
  store i32 1, ptr %8, align 4
  store i32 1, ptr %9, align 4
  %17 = getelementptr inbounds %class.G1FullGCCompactionPoint, ptr %12, i32 0, i32 4
  %18 = load ptr, ptr %17, align 8
  %19 = call noundef i32 @_ZNK17GrowableArrayBase6lengthEv(ptr noundef nonnull align 4 dereferenceable(8) %18)
  store i32 %19, ptr %10, align 4
  br label %20

20:                                               ; preds = %54, %16
  %21 = load i32, ptr %9, align 4
  %22 = load i32, ptr %10, align 4
  %23 = icmp ult i32 %21, %22
  br i1 %23, label %24, label %57

24:                                               ; preds = %20
  %25 = load i32, ptr %8, align 4
  %26 = load i32, ptr %7, align 4
  %27 = icmp eq i32 %25, %26
  br i1 %27, label %28, label %29

28:                                               ; preds = %24
  br label %57

29:                                               ; preds = %24
  %30 = getelementptr inbounds %class.G1FullGCCompactionPoint, ptr %12, i32 0, i32 4
  %31 = load ptr, ptr %30, align 8
  %32 = load i32, ptr %9, align 4
  %33 = call noundef nonnull align 8 dereferenceable(8) ptr @_ZN17GrowableArrayViewIP12G1HeapRegionE2atEi(ptr noundef nonnull align 8 dereferenceable(16) %31, i32 noundef %32)
  %34 = load ptr, ptr %33, align 8
  %35 = call noundef i32 @_ZNK12G1HeapRegion9hrm_indexEv(ptr noundef nonnull align 8 dereferenceable(136) %34)
  %36 = getelementptr inbounds %class.G1FullGCCompactionPoint, ptr %12, i32 0, i32 4
  %37 = load ptr, ptr %36, align 8
  %38 = load i32, ptr %9, align 4
  %39 = sub i32 %38, 1
  %40 = call noundef nonnull align 8 dereferenceable(8) ptr @_ZN17GrowableArrayViewIP12G1HeapRegionE2atEi(ptr noundef nonnull align 8 dereferenceable(16) %37, i32 noundef %39)
  %41 = load ptr, ptr %40, align 8
  %42 = call noundef i32 @_ZNK12G1HeapRegion9hrm_indexEv(ptr noundef nonnull align 8 dereferenceable(136) %41)
  %43 = sub i32 %35, %42
  %44 = icmp eq i32 %43, 1
  %45 = zext i1 %44 to i8
  store i8 %45, ptr %11, align 1
  %46 = load i8, ptr %11, align 1
  %47 = trunc i8 %46 to i1
  br i1 %47, label %48, label %51

48:                                               ; preds = %29
  %49 = load i32, ptr %8, align 4
  %50 = add i32 %49, 1
  br label %52

51:                                               ; preds = %29
  br label %52

52:                                               ; preds = %51, %48
  %53 = phi i32 [ %50, %48 ], [ 1, %51 ]
  store i32 %53, ptr %8, align 4
  br label %54

54:                                               ; preds = %52
  %55 = load i32, ptr %9, align 4
  %56 = add i32 %55, 1
  store i32 %56, ptr %9, align 4
  br label %20, !llvm.loop !9

57:                                               ; preds = %28, %20
  %58 = load i32, ptr %8, align 4
  %59 = load i32, ptr %7, align 4
  %60 = icmp ult i32 %58, %59
  br i1 %60, label %61, label %74

61:                                               ; preds = %57
  %62 = load ptr, ptr %6, align 8
  %63 = call noundef i32 @_ZNK12G1HeapRegion9hrm_indexEv(ptr noundef nonnull align 8 dereferenceable(136) %62)
  %64 = getelementptr inbounds %class.G1FullGCCompactionPoint, ptr %12, i32 0, i32 4
  %65 = load ptr, ptr %64, align 8
  %66 = load i32, ptr %9, align 4
  %67 = sub i32 %66, 1
  %68 = call noundef nonnull align 8 dereferenceable(8) ptr @_ZN17GrowableArrayViewIP12G1HeapRegionE2atEi(ptr noundef nonnull align 8 dereferenceable(16) %65, i32 noundef %67)
  %69 = load ptr, ptr %68, align 8
  %70 = call noundef i32 @_ZNK12G1HeapRegion9hrm_indexEv(ptr noundef nonnull align 8 dereferenceable(136) %69)
  %71 = sub i32 %63, %70
  %72 = icmp ne i32 %71, 1
  br i1 %72, label %73, label %74

73:                                               ; preds = %61
  store i32 -1, ptr %4, align 4
  br label %78

74:                                               ; preds = %61, %57
  %75 = load i32, ptr %9, align 4
  %76 = load i32, ptr %8, align 4
  %77 = sub i32 %75, %76
  store i32 %77, ptr %4, align 4
  br label %78

78:                                               ; preds = %74, %73, %15
  %79 = load i32, ptr %4, align 4
  ret i32 %79
}