; Function Attrs: mustprogress nofree norecurse nosync nounwind willreturn memory(read, inaccessiblemem: none) uwtable
define hidden noundef i32 @_ZN23G1FullGCCompactionPoint22find_contiguous_beforeEP12G1HeapRegionj(ptr nocapture noundef nonnull readonly align 8 dereferenceable(56) %0, ptr nocapture noundef readonly %1, i32 noundef %2) local_unnamed_addr #5 align 2 {
  %4 = icmp eq i32 %2, 1
  br i1 %4, label %41, label %5

5:                                                ; preds = %3
  %6 = getelementptr inbounds i8, ptr %0, i64 32
  %7 = load ptr, ptr %6, align 8
  %8 = load i32, ptr %7, align 4
  %9 = icmp ult i32 %8, 2
  br i1 %9, label %._crit_edge, label %.lr.ph

.lr.ph:                                           ; preds = %5
  %10 = getelementptr inbounds i8, ptr %7, i64 8
  %11 = load ptr, ptr %10, align 8
  %.pre = load ptr, ptr %11, align 8
  %.phi.trans.insert = getelementptr inbounds i8, ptr %.pre, i64 48
  %.pre24 = load i32, ptr %.phi.trans.insert, align 8
  br label %12

12:                                               ; preds = %.lr.ph, %12
  %13 = phi i32 [ %.pre24, %.lr.ph ], [ %18, %12 ]
  %.01721 = phi i32 [ 1, %.lr.ph ], [ %22, %12 ]
  %.01820 = phi i32 [ 1, %.lr.ph ], [ %23, %12 ]
  %14 = sext i32 %.01820 to i64
  %15 = getelementptr inbounds ptr, ptr %11, i64 %14
  %16 = load ptr, ptr %15, align 8
  %17 = getelementptr inbounds i8, ptr %16, i64 48
  %18 = load i32, ptr %17, align 8
  %19 = sub i32 %18, %13
  %20 = icmp eq i32 %19, 1
  %21 = add i32 %.01721, 1
  %22 = select i1 %20, i32 %21, i32 1
  %23 = add nuw i32 %.01820, 1
  %24 = icmp uge i32 %23, %8
  %25 = icmp eq i32 %22, %2
  %or.cond = select i1 %24, i1 true, i1 %25
  br i1 %or.cond, label %._crit_edge, label %12, !llvm.loop !10

._crit_edge:                                      ; preds = %12, %5
  %.018.lcssa = phi i32 [ 1, %5 ], [ %23, %12 ]
  %.017.lcssa = phi i32 [ 1, %5 ], [ %22, %12 ]
  %26 = icmp ult i32 %.017.lcssa, %2
  br i1 %26, label %27, label %39

27:                                               ; preds = %._crit_edge
  %28 = getelementptr inbounds i8, ptr %1, i64 48
  %29 = load i32, ptr %28, align 8
  %30 = add i32 %.018.lcssa, -1
  %31 = getelementptr inbounds i8, ptr %7, i64 8
  %32 = load ptr, ptr %31, align 8
  %33 = sext i32 %30 to i64
  %34 = getelementptr inbounds ptr, ptr %32, i64 %33
  %35 = load ptr, ptr %34, align 8
  %36 = getelementptr inbounds i8, ptr %35, i64 48
  %37 = load i32, ptr %36, align 8
  %38 = sub i32 %29, %37
  %.not = icmp eq i32 %38, 1
  br i1 %.not, label %39, label %41

39:                                               ; preds = %27, %._crit_edge
  %40 = sub i32 %.018.lcssa, %.017.lcssa
  br label %41

41:                                               ; preds = %27, %3, %39
  %.0 = phi i32 [ %40, %39 ], [ 0, %3 ], [ -1, %27 ]
  ret i32 %.0
}